target datalayout = "e-m:e-p270:32:32-p271:32:32-p272:64:64-i64:64-i128:128-f80:128-n8:16:32:64-S128"
target triple = "x86_64-pc-linux-gnu"

%struct.PgStat_LocalState = type { ptr, ptr, ptr, %struct.PgStat_Snapshot }
%struct.PgStat_Snapshot = type { i32, i64, [13 x i8], %struct.PgStat_ArchiverStats, %struct.PgStat_BgWriterStats, %struct.PgStat_CheckpointerStats, %struct.PgStat_IO, [8 x %struct.PgStat_SLRUStats], %struct.PgStat_WalStats, [129 x i8], [129 x ptr], ptr, ptr }
%struct.PgStat_ArchiverStats = type { i64, [41 x i8], i64, i64, [41 x i8], i64, i64 }
%struct.PgStat_BgWriterStats = type { i64, i64, i64, i64 }
%struct.PgStat_CheckpointerStats = type { i64, i64, i64, i64, i64, i64, i64, i64, i64, i64, i64 }
%struct.PgStat_IO = type { i64, [17 x %struct.PgStat_BktypeIO] }
%struct.PgStat_BktypeIO = type { [3 x [5 x [8 x i64]]], [3 x [5 x [8 x i64]]], [3 x [5 x [8 x i64]]] }
%struct.PgStat_SLRUStats = type { i64, i64, i64, i64, i64, i64, i64, i64 }
%struct.PgStat_WalStats = type { i64, i64, i64, i64, i64, i64, i64, i64, i64 }
%struct.pgstat_snapshot_hash = type { i64, i32, i32, i32, ptr, ptr, ptr }

@pgstat_fetch_consistency = dso_local global i32 1, align 4
@pgStatLocal = dso_local global %struct.PgStat_LocalState zeroinitializer, align 8
@force_stats_snapshot_clear = internal global i8 0, align 1
@TopMemoryContext = external global ptr, align 8
@.str.19 = private unnamed_addr constant [41 x i8] c"../../../../src/include/lib/simplehash.h\00", align 1
@.str.20 = private unnamed_addr constant [21 x i8] c"hash table too large\00", align 1
@__func__.pgstat_snapshot_compute_size = private unnamed_addr constant [29 x i8] c"pgstat_snapshot_compute_size\00", align 1
@.str.21 = private unnamed_addr constant [16 x i8] c"PgStat Snapshot\00", align 1

; Function Attrs: inlinehint nounwind uwtable
define internal i32 @pg_leftmost_one_pos64(i64 noundef %0) #6 {
  %2 = alloca i64, align 8
  store i64 %0, ptr %2, align 8
  %3 = load i64, ptr %2, align 8
  %4 = call i64 @llvm.ctlz.i64(i64 %3, i1 true)
  %5 = trunc i64 %4 to i32
  %6 = sub i32 63, %5
  ret i32 %6
}

; Function Attrs: inlinehint nounwind uwtable
define internal i64 @pg_nextpower2_64(i64 noundef %0) #6 {
  %2 = alloca i64, align 8
  %3 = alloca i64, align 8
  store i64 %0, ptr %3, align 8
  %4 = load i64, ptr %3, align 8
  %5 = load i64, ptr %3, align 8
  %6 = sub i64 %5, 1
  %7 = and i64 %4, %6
  %8 = icmp eq i64 %7, 0
  br i1 %8, label %9, label %11

9:                                                ; preds = %1
  %10 = load i64, ptr %3, align 8
  store i64 %10, ptr %2, align 8
  br label %17

11:                                               ; preds = %1
  %12 = load i64, ptr %3, align 8
  %13 = call i32 @pg_leftmost_one_pos64(i64 noundef %12)
  %14 = add i32 %13, 1
  %15 = zext i32 %14 to i64
  %16 = shl i64 1, %15
  store i64 %16, ptr %2, align 8
  br label %17

17:                                               ; preds = %11, %9
  %18 = load i64, ptr %2, align 8
  ret i64 %18
}

; Function Attrs: inlinehint nounwind uwtable
define internal void @pgstat_snapshot_update_parameters(ptr noundef %0, i64 noundef %1) #6 {
  %3 = alloca ptr, align 8
  %4 = alloca i64, align 8
  %5 = alloca i64, align 8
  store ptr %0, ptr %3, align 8
  store i64 %1, ptr %4, align 8
  call void @llvm.lifetime.start.p0(i64 8, ptr %5) #12
  %6 = load i64, ptr %4, align 8
  %7 = call i64 @pgstat_snapshot_compute_size(i64 noundef %6)
  store i64 %7, ptr %5, align 8
  %8 = load i64, ptr %5, align 8
  %9 = load ptr, ptr %3, align 8
  %10 = getelementptr inbounds nuw %struct.pgstat_snapshot_hash, ptr %9, i32 0, i32 0
  store i64 %8, ptr %10, align 8
  %11 = load i64, ptr %5, align 8
  %12 = sub i64 %11, 1
  %13 = trunc i64 %12 to i32
  %14 = load ptr, ptr %3, align 8
  %15 = getelementptr inbounds nuw %struct.pgstat_snapshot_hash, ptr %14, i32 0, i32 2
  store i32 %13, ptr %15, align 4
  %16 = load ptr, ptr %3, align 8
  %17 = getelementptr inbounds nuw %struct.pgstat_snapshot_hash, ptr %16, i32 0, i32 0
  %18 = load i64, ptr %17, align 8
  %19 = icmp eq i64 %18, 4294967296
  br i1 %19, label %20, label %29

20:                                               ; preds = %2
  %21 = load ptr, ptr %3, align 8
  %22 = getelementptr inbounds nuw %struct.pgstat_snapshot_hash, ptr %21, i32 0, i32 0
  %23 = load i64, ptr %22, align 8
  %24 = uitofp i64 %23 to double
  %25 = fmul double %24, 0x3FEF5C28F5C28F5C
  %26 = fptoui double %25 to i32
  %27 = load ptr, ptr %3, align 8
  %28 = getelementptr inbounds nuw %struct.pgstat_snapshot_hash, ptr %27, i32 0, i32 3
  store i32 %26, ptr %28, align 8
  br label %38

29:                                               ; preds = %2
  %30 = load ptr, ptr %3, align 8
  %31 = getelementptr inbounds nuw %struct.pgstat_snapshot_hash, ptr %30, i32 0, i32 0
  %32 = load i64, ptr %31, align 8
  %33 = uitofp i64 %32 to double
  %34 = fmul double %33, 9.000000e-01
  %35 = fptoui double %34 to i32
  %36 = load ptr, ptr %3, align 8
  %37 = getelementptr inbounds nuw %struct.pgstat_snapshot_hash, ptr %36, i32 0, i32 3
  store i32 %35, ptr %37, align 8
  br label %38

38:                                               ; preds = %29, %20
  call void @llvm.lifetime.end.p0(i64 8, ptr %5) #12
  ret void
}

; Function Attrs: inlinehint nounwind uwtable
define internal ptr @pgstat_snapshot_allocate(ptr noundef %0, i64 noundef %1) #6 {
  %3 = alloca ptr, align 8
  %4 = alloca i64, align 8
  store ptr %0, ptr %3, align 8
  store i64 %1, ptr %4, align 8
  %5 = load ptr, ptr %3, align 8
  %6 = getelementptr inbounds nuw %struct.pgstat_snapshot_hash, ptr %5, i32 0, i32 5
  %7 = load ptr, ptr %6, align 8
  %8 = load i64, ptr %4, align 8
  %9 = call ptr @MemoryContextAllocExtended(ptr noundef %7, i64 noundef %8, i32 noundef 5)
  ret ptr %9
}

; Function Attrs: inlinehint nounwind uwtable
define internal i64 @pgstat_snapshot_compute_size(i64 noundef %0) #6 {
  %2 = alloca i64, align 8
  %3 = alloca i64, align 8
  store i64 %0, ptr %2, align 8
  call void @llvm.lifetime.start.p0(i64 8, ptr %3) #12
  %4 = load i64, ptr %2, align 8
  %5 = icmp ugt i64 %4, 2
  br i1 %5, label %6, label %8

6:                                                ; preds = %1
  %7 = load i64, ptr %2, align 8
  br label %9

8:                                                ; preds = %1
  br label %9

9:                                                ; preds = %8, %6
  %10 = phi i64 [ %7, %6 ], [ 2, %8 ]
  store i64 %10, ptr %3, align 8
  %11 = load i64, ptr %3, align 8
  %12 = call i64 @pg_nextpower2_64(i64 noundef %11)
  store i64 %12, ptr %3, align 8
  %13 = load i64, ptr %3, align 8
  %14 = mul i64 32, %13
  %15 = icmp uge i64 %14, 9223372036854775807
  %16 = zext i1 %15 to i32
  %17 = icmp ne i32 %16, 0
  %18 = zext i1 %17 to i32
  %19 = sext i32 %18 to i64
  %20 = call i64 @llvm.expect.i64(i64 %19, i64 0)
  %21 = icmp ne i64 %20, 0
  br i1 %21, label %22, label %33

22:                                               ; preds = %9
  br label %23

23:                                               ; preds = %22
  br i1 true, label %24, label %26

24:                                               ; preds = %23
  %25 = call zeroext i1 @errstart_cold(i32 noundef 21, ptr noundef null) #13
  br i1 %25, label %28, label %30

26:                                               ; preds = %23
  %27 = call zeroext i1 @errstart(i32 noundef 21, ptr noundef null)
  br i1 %27, label %28, label %30

28:                                               ; preds = %26, %24
  %29 = call i32 (ptr, ...) @errmsg_internal(ptr noundef @.str.20)
  call void @errfinish(ptr noundef @.str.19, i32 noundef 327, ptr noundef @__func__.pgstat_snapshot_compute_size)
  br label %30

30:                                               ; preds = %28, %26, %24
  unreachable

31:                                               ; No predecessors!
  br label %32

32:                                               ; preds = %31
  br label %33

33:                                               ; preds = %32, %9
  %34 = load i64, ptr %3, align 8
  call void @llvm.lifetime.end.p0(i64 8, ptr %3) #12
  ret i64 %34
}

; Function Attrs: inlinehint nounwind uwtable
define internal ptr @pgstat_snapshot_create(ptr noundef %0, i32 noundef %1, ptr noundef %2) #6 {
  %4 = alloca ptr, align 8
  %5 = alloca i32, align 4
  %6 = alloca ptr, align 8
  %7 = alloca ptr, align 8
  %8 = alloca i64, align 8
  store ptr %0, ptr %4, align 8
  store i32 %1, ptr %5, align 4
  store ptr %2, ptr %6, align 8
  call void @llvm.lifetime.start.p0(i64 8, ptr %7) #12
  call void @llvm.lifetime.start.p0(i64 8, ptr %8) #12
  %9 = load ptr, ptr %4, align 8
  %10 = call ptr @MemoryContextAllocZero(ptr noundef %9, i64 noundef 48)
  store ptr %10, ptr %7, align 8
  %11 = load ptr, ptr %4, align 8
  %12 = load ptr, ptr %7, align 8
  %13 = getelementptr inbounds nuw %struct.pgstat_snapshot_hash, ptr %12, i32 0, i32 5
  store ptr %11, ptr %13, align 8
  %14 = load ptr, ptr %6, align 8
  %15 = load ptr, ptr %7, align 8
  %16 = getelementptr inbounds nuw %struct.pgstat_snapshot_hash, ptr %15, i32 0, i32 6
  store ptr %14, ptr %16, align 8
  %17 = load i32, ptr %5, align 4
  %18 = uitofp i32 %17 to double
  %19 = fdiv double %18, 9.000000e-01
  %20 = fcmp olt double 0x41F0000000000000, %19
  br i1 %20, label %21, label %22

21:                                               ; preds = %3
  br label %26

22:                                               ; preds = %3
  %23 = load i32, ptr %5, align 4
  %24 = uitofp i32 %23 to double
  %25 = fdiv double %24, 9.000000e-01
  br label %26

26:                                               ; preds = %22, %21
  %27 = phi double [ 0x41F0000000000000, %21 ], [ %25, %22 ]
  %28 = fptoui double %27 to i64
  store i64 %28, ptr %8, align 8
  %29 = load i64, ptr %8, align 8
  %30 = call i64 @pgstat_snapshot_compute_size(i64 noundef %29)
  store i64 %30, ptr %8, align 8
  %31 = load ptr, ptr %7, align 8
  %32 = load i64, ptr %8, align 8
  %33 = mul i64 32, %32
  %34 = call ptr @pgstat_snapshot_allocate(ptr noundef %31, i64 noundef %33)
  %35 = load ptr, ptr %7, align 8
  %36 = getelementptr inbounds nuw %struct.pgstat_snapshot_hash, ptr %35, i32 0, i32 4
  store ptr %34, ptr %36, align 8
  %37 = load ptr, ptr %7, align 8
  %38 = load i64, ptr %8, align 8
  call void @pgstat_snapshot_update_parameters(ptr noundef %37, i64 noundef %38)
  %39 = load ptr, ptr %7, align 8
  call void @llvm.lifetime.end.p0(i64 8, ptr %8) #12
  call void @llvm.lifetime.end.p0(i64 8, ptr %7) #12
  ret ptr %39
}

; Function Attrs: nounwind uwtable
define dso_local void @pgstat_clear_snapshot() #0 {
  call void @llvm.memset.p0.i64(ptr align 8 getelementptr inbounds nuw (%struct.PgStat_Snapshot, ptr getelementptr inbounds nuw (%struct.PgStat_LocalState, ptr @pgStatLocal, i32 0, i32 3), i32 0, i32 2), i8 0, i64 13, i1 false)
  call void @llvm.memset.p0.i64(ptr align 8 getelementptr inbounds nuw (%struct.PgStat_Snapshot, ptr getelementptr inbounds nuw (%struct.PgStat_LocalState, ptr @pgStatLocal, i32 0, i32 3), i32 0, i32 9), i8 0, i64 129, i1 false)
  store ptr null, ptr getelementptr inbounds nuw (%struct.PgStat_Snapshot, ptr getelementptr inbounds nuw (%struct.PgStat_LocalState, ptr @pgStatLocal, i32 0, i32 3), i32 0, i32 12), align 8
  store i32 0, ptr getelementptr inbounds nuw (%struct.PgStat_LocalState, ptr @pgStatLocal, i32 0, i32 3), align 8
  %1 = load ptr, ptr getelementptr inbounds nuw (%struct.PgStat_Snapshot, ptr getelementptr inbounds nuw (%struct.PgStat_LocalState, ptr @pgStatLocal, i32 0, i32 3), i32 0, i32 11), align 8
  %2 = icmp ne ptr %1, null
  br i1 %2, label %3, label %5

3:                                                ; preds = %0
  %4 = load ptr, ptr getelementptr inbounds nuw (%struct.PgStat_Snapshot, ptr getelementptr inbounds nuw (%struct.PgStat_LocalState, ptr @pgStatLocal, i32 0, i32 3), i32 0, i32 11), align 8
  call void @MemoryContextDelete(ptr noundef %4)
  store ptr null, ptr getelementptr inbounds nuw (%struct.PgStat_Snapshot, ptr getelementptr inbounds nuw (%struct.PgStat_LocalState, ptr @pgStatLocal, i32 0, i32 3), i32 0, i32 11), align 8
  br label %5

5:                                                ; preds = %3, %0
  call void @pgstat_clear_backend_activity_snapshot()
  store i8 0, ptr @force_stats_snapshot_clear, align 1
  ret void
}

; Function Attrs: nounwind uwtable
define internal void @pgstat_prep_snapshot() #0 {
  %1 = alloca i32, align 4
  %2 = load i8, ptr @force_stats_snapshot_clear, align 1, !range !4, !noundef !5
  %3 = trunc i8 %2 to i1
  br i1 %3, label %4, label %5

4:                                                ; preds = %0
  call void @pgstat_clear_snapshot()
  br label %5

5:                                                ; preds = %4, %0
  %6 = load i32, ptr @pgstat_fetch_consistency, align 4
  %7 = icmp eq i32 %6, 0
  br i1 %7, label %11, label %8

8:                                                ; preds = %5
  %9 = load ptr, ptr getelementptr inbounds nuw (%struct.PgStat_Snapshot, ptr getelementptr inbounds nuw (%struct.PgStat_LocalState, ptr @pgStatLocal, i32 0, i32 3), i32 0, i32 12), align 8
  %10 = icmp ne ptr %9, null
  br i1 %10, label %11, label %12

11:                                               ; preds = %8, %5
  br label %23

12:                                               ; preds = %8
  %13 = load ptr, ptr getelementptr inbounds nuw (%struct.PgStat_Snapshot, ptr getelementptr inbounds nuw (%struct.PgStat_LocalState, ptr @pgStatLocal, i32 0, i32 3), i32 0, i32 11), align 8
  %14 = icmp ne ptr %13, null
  br i1 %14, label %20, label %15

15:                                               ; preds = %12
  br label %16

16:                                               ; preds = %15
  br label %17

17:                                               ; preds = %16
  store i32 1, ptr %1, align 4
  %18 = load ptr, ptr @TopMemoryContext, align 8
  %19 = call ptr @AllocSetContextCreateInternal(ptr noundef %18, ptr noundef @.str.21, i64 noundef 0, i64 noundef 1024, i64 noundef 8192)
  store ptr %19, ptr getelementptr inbounds nuw (%struct.PgStat_Snapshot, ptr getelementptr inbounds nuw (%struct.PgStat_LocalState, ptr @pgStatLocal, i32 0, i32 3), i32 0, i32 11), align 8
  br label %20

20:                                               ; preds = %17, %12
  %21 = load ptr, ptr getelementptr inbounds nuw (%struct.PgStat_Snapshot, ptr getelementptr inbounds nuw (%struct.PgStat_LocalState, ptr @pgStatLocal, i32 0, i32 3), i32 0, i32 11), align 8
  %22 = call ptr @pgstat_snapshot_create(ptr noundef %21, i32 noundef 512, ptr noundef null)
  store ptr %22, ptr getelementptr inbounds nuw (%struct.PgStat_Snapshot, ptr getelementptr inbounds nuw (%struct.PgStat_LocalState, ptr @pgStatLocal, i32 0, i32 3), i32 0, i32 12), align 8
  br label %23

23:                                               ; preds = %20, %11
  ret void
}