; Function Attrs: nounwind uwtable
define internal fastcc void @pgstat_prep_snapshot() unnamed_addr #0 {
  %.b2 = load i1, ptr @force_stats_snapshot_clear, align 1
  br i1 %.b2, label %1, label %4

1:                                                ; preds = %0
  tail call void @llvm.memset.p0.i64(ptr noundef nonnull align 8 dereferenceable(13) getelementptr inbounds nuw (i8, ptr @pgStatLocal, i64 40), i8 0, i64 13, i1 false)
  tail call void @llvm.memset.p0.i64(ptr noundef nonnull align 8 dereferenceable(129) getelementptr inbounds nuw (i8, ptr @pgStatLocal, i64 49864), i8 0, i64 129, i1 false)
  store ptr null, ptr getelementptr inbounds nuw (i8, ptr @pgStatLocal, i64 51040), align 8
  store i32 0, ptr getelementptr inbounds nuw (i8, ptr @pgStatLocal, i64 24), align 8
  %2 = load ptr, ptr getelementptr inbounds nuw (i8, ptr @pgStatLocal, i64 51032), align 8
  %.not.i = icmp eq ptr %2, null
  br i1 %.not.i, label %pgstat_clear_snapshot.exit, label %3

3:                                                ; preds = %1
  tail call void @MemoryContextDelete(ptr noundef nonnull %2) #17
  store ptr null, ptr getelementptr inbounds nuw (i8, ptr @pgStatLocal, i64 51032), align 8
  br label %pgstat_clear_snapshot.exit

pgstat_clear_snapshot.exit:                       ; preds = %1, %3
  tail call void @pgstat_clear_backend_activity_snapshot() #17
  store i1 false, ptr @force_stats_snapshot_clear, align 1
  br label %4

4:                                                ; preds = %pgstat_clear_snapshot.exit, %0
  %5 = load i32, ptr @pgstat_fetch_consistency, align 4
  %6 = icmp eq i32 %5, 0
  %7 = load ptr, ptr getelementptr inbounds nuw (i8, ptr @pgStatLocal, i64 51040), align 8
  %8 = icmp ne ptr %7, null
  %or.cond = select i1 %6, i1 true, i1 %8
  br i1 %or.cond, label %23, label %9

9:                                                ; preds = %4
  %10 = load ptr, ptr getelementptr inbounds nuw (i8, ptr @pgStatLocal, i64 51032), align 8
  %.not = icmp eq ptr %10, null
  br i1 %.not, label %11, label %14

11:                                               ; preds = %9
  %12 = load ptr, ptr @TopMemoryContext, align 8
  %13 = tail call ptr @AllocSetContextCreateInternal(ptr noundef %12, ptr noundef nonnull @.str.21, i64 noundef 0, i64 noundef 1024, i64 noundef 8192) #17
  store ptr %13, ptr getelementptr inbounds nuw (i8, ptr @pgStatLocal, i64 51032), align 8
  br label %14

14:                                               ; preds = %11, %9
  %15 = phi ptr [ %13, %11 ], [ %10, %9 ]
  %16 = tail call ptr @MemoryContextAllocZero(ptr noundef %15, i64 noundef 48) #17
  %17 = getelementptr inbounds nuw i8, ptr %16, i64 32
  store ptr %15, ptr %17, align 8
  %18 = getelementptr inbounds nuw i8, ptr %16, i64 40
  store ptr null, ptr %18, align 8
  %19 = tail call ptr @MemoryContextAllocExtended(ptr noundef %15, i64 noundef 32768, i32 noundef 5) #17
  %20 = getelementptr inbounds nuw i8, ptr %16, i64 24
  store ptr %19, ptr %20, align 8
  store i64 1024, ptr %16, align 8
  %21 = getelementptr inbounds nuw i8, ptr %16, i64 12
  store i32 1023, ptr %21, align 4
  %22 = getelementptr inbounds nuw i8, ptr %16, i64 16
  store i32 921, ptr %22, align 8
  store ptr %16, ptr getelementptr inbounds nuw (i8, ptr @pgStatLocal, i64 51040), align 8
  br label %23

23:                                               ; preds = %4, %14
  ret void
}